target datalayout = "e-m:e-p270:32:32-p271:32:32-p272:64:64-i64:64-i128:128-f80:128-n8:16:32:64-S128"
target triple = "x86_64-pc-linux-gnu"

%struct.PlanState = type { i32, ptr, ptr, ptr, ptr, ptr, ptr, ptr, ptr, ptr, ptr, ptr, ptr, ptr, ptr, ptr, ptr, ptr, i8, ptr, ptr, ptr, ptr, ptr, i8, i8, i8, i8, i8, i8, i8, i8 }

; Function Attrs: nounwind uwtable
define internal ptr @ExecProcNodeFirst(ptr noundef %0) #0 {
  %2 = alloca ptr, align 8
  store ptr %0, ptr %2, align 8
  call void @check_stack_depth()
  %3 = load ptr, ptr %2, align 8
  %4 = getelementptr inbounds nuw %struct.PlanState, ptr %3, i32 0, i32 5
  %5 = load ptr, ptr %4, align 8
  %6 = icmp ne ptr %5, null
  br i1 %6, label %7, label %10

7:                                                ; preds = %1
  %8 = load ptr, ptr %2, align 8
  %9 = getelementptr inbounds nuw %struct.PlanState, ptr %8, i32 0, i32 3
  store ptr @ExecProcNodeInstr, ptr %9, align 8
  br label %16

10:                                               ; preds = %1
  %11 = load ptr, ptr %2, align 8
  %12 = getelementptr inbounds nuw %struct.PlanState, ptr %11, i32 0, i32 4
  %13 = load ptr, ptr %12, align 8
  %14 = load ptr, ptr %2, align 8
  %15 = getelementptr inbounds nuw %struct.PlanState, ptr %14, i32 0, i32 3
  store ptr %13, ptr %15, align 8
  br label %16

16:                                               ; preds = %10, %7
  %17 = load ptr, ptr %2, align 8
  %18 = getelementptr inbounds nuw %struct.PlanState, ptr %17, i32 0, i32 3
  %19 = load ptr, ptr %18, align 8
  %20 = load ptr, ptr %2, align 8
  %21 = call ptr %19(ptr noundef %20)
  ret ptr %21
}