; Function Attrs: nounwind uwtable
define internal ptr @ExecProcNodeFirst(ptr noundef initializes((24, 32)) %0) #0 {
  tail call void @check_stack_depth() #6
  %2 = getelementptr inbounds nuw i8, ptr %0, i64 40
  %3 = load ptr, ptr %2, align 8
  %.not = icmp eq ptr %3, null
  br i1 %.not, label %4, label %7

4:                                                ; preds = %1
  %5 = getelementptr inbounds nuw i8, ptr %0, i64 32
  %6 = load ptr, ptr %5, align 8
  br label %7

7:                                                ; preds = %1, %4
  %ExecProcNodeInstr.sink = phi ptr [ %6, %4 ], [ @ExecProcNodeInstr, %1 ]
  %8 = getelementptr inbounds nuw i8, ptr %0, i64 24
  store ptr %ExecProcNodeInstr.sink, ptr %8, align 8
  %9 = tail call ptr %ExecProcNodeInstr.sink(ptr noundef nonnull %0) #6
  ret ptr %9
}